target datalayout = "e-m:e-p270:32:32-p271:32:32-p272:64:64-i64:64-i128:128-f80:128-n8:16:32:64-S128"
target triple = "x86_64-pc-linux-gnu"

%struct.SurfaceDataRasInfo = type { %struct.SurfaceDataBounds, ptr, i32, i32, i32, i32, ptr, ptr, ptr, ptr, ptr, ptr, i32, %union.anon.0 }
%struct.SurfaceDataBounds = type { i32, i32, i32, i32 }
%union.anon.0 = type { ptr, [56 x i8] }
%struct.ImageRef = type { ptr, ptr, i32, i32, i32, i32, i32, i32 }

@mul8table = external global [256 x [256 x i8]], align 16

; Function Attrs: nounwind uwtable
define hidden void @Index12GrayDrawGlyphListAA(ptr noundef %0, ptr noundef %1, i32 noundef %2, i32 noundef %3, i32 noundef %4, i32 noundef %5, i32 noundef %6, i32 noundef %7, i32 noundef %8, ptr noundef %9, ptr noundef %10) #0 {
  %12 = alloca ptr, align 8
  %13 = alloca ptr, align 8
  %14 = alloca i32, align 4
  %15 = alloca i32, align 4
  %16 = alloca i32, align 4
  %17 = alloca i32, align 4
  %18 = alloca i32, align 4
  %19 = alloca i32, align 4
  %20 = alloca i32, align 4
  %21 = alloca ptr, align 8
  %22 = alloca ptr, align 8
  %23 = alloca i32, align 4
  %24 = alloca i32, align 4
  %25 = alloca ptr, align 8
  %26 = alloca i32, align 4
  %27 = alloca i32, align 4
  %28 = alloca ptr, align 8
  %29 = alloca ptr, align 8
  %30 = alloca i32, align 4
  %31 = alloca i32, align 4
  %32 = alloca i32, align 4
  %33 = alloca ptr, align 8
  %34 = alloca i32, align 4
  %35 = alloca i32, align 4
  %36 = alloca i32, align 4
  %37 = alloca i32, align 4
  %38 = alloca i32, align 4
  %39 = alloca i32, align 4
  %40 = alloca i32, align 4
  %41 = alloca i32, align 4
  %42 = alloca i32, align 4
  %43 = alloca i32, align 4
  %44 = alloca i32, align 4
  store ptr %0, ptr %12, align 8
  store ptr %1, ptr %13, align 8
  store i32 %2, ptr %14, align 4
  store i32 %3, ptr %15, align 4
  store i32 %4, ptr %16, align 4
  store i32 %5, ptr %17, align 4
  store i32 %6, ptr %18, align 4
  store i32 %7, ptr %19, align 4
  store i32 %8, ptr %20, align 4
  store ptr %9, ptr %21, align 8
  store ptr %10, ptr %22, align 8
  %45 = load ptr, ptr %12, align 8
  %46 = getelementptr inbounds %struct.SurfaceDataRasInfo, ptr %45, i32 0, i32 4
  %47 = load i32, ptr %46, align 8
  store i32 %47, ptr %24, align 4
  %48 = load ptr, ptr %12, align 8
  %49 = getelementptr inbounds %struct.SurfaceDataRasInfo, ptr %48, i32 0, i32 6
  %50 = load ptr, ptr %49, align 8
  store ptr %50, ptr %28, align 8
  %51 = load ptr, ptr %12, align 8
  %52 = getelementptr inbounds %struct.SurfaceDataRasInfo, ptr %51, i32 0, i32 11
  %53 = load ptr, ptr %52, align 8
  store ptr %53, ptr %29, align 8
  br label %54

54:                                               ; preds = %11
  br label %55

55:                                               ; preds = %54
  %56 = load i32, ptr %16, align 4
  %57 = and i32 %56, 255
  store i32 %57, ptr %32, align 4
  %58 = load i32, ptr %16, align 4
  %59 = ashr i32 %58, 8
  %60 = and i32 %59, 255
  store i32 %60, ptr %31, align 4
  %61 = load i32, ptr %16, align 4
  %62 = ashr i32 %61, 16
  %63 = and i32 %62, 255
  store i32 %63, ptr %30, align 4
  %64 = load i32, ptr %16, align 4
  %65 = ashr i32 %64, 24
  %66 = and i32 %65, 255
  store i32 %66, ptr %26, align 4
  br label %67

67:                                               ; preds = %55
  %68 = load i32, ptr %30, align 4
  %69 = mul nsw i32 77, %68
  %70 = load i32, ptr %31, align 4
  %71 = mul nsw i32 150, %70
  %72 = add nsw i32 %69, %71
  %73 = load i32, ptr %32, align 4
  %74 = mul nsw i32 29, %73
  %75 = add nsw i32 %72, %74
  %76 = add nsw i32 %75, 128
  %77 = sdiv i32 %76, 256
  %78 = trunc i32 %77 to i8
  %79 = zext i8 %78 to i32
  store i32 %79, ptr %27, align 4
  br label %80

80:                                               ; preds = %67
  store i32 0, ptr %23, align 4
  br label %81

81:                                               ; preds = %289, %80
  %82 = load i32, ptr %23, align 4
  %83 = load i32, ptr %14, align 4
  %84 = icmp slt i32 %82, %83
  br i1 %84, label %85, label %292

85:                                               ; preds = %81
  %86 = load ptr, ptr %13, align 8
  %87 = load i32, ptr %23, align 4
  %88 = sext i32 %87 to i64
  %89 = getelementptr inbounds %struct.ImageRef, ptr %86, i64 %88
  %90 = getelementptr inbounds %struct.ImageRef, ptr %89, i32 0, i32 1
  %91 = load ptr, ptr %90, align 8
  store ptr %91, ptr %33, align 8
  %92 = load ptr, ptr %33, align 8
  %93 = icmp ne ptr %92, null
  br i1 %93, label %95, label %94

94:                                               ; preds = %85
  br label %289

95:                                               ; preds = %85
  %96 = load ptr, ptr %13, align 8
  %97 = load i32, ptr %23, align 4
  %98 = sext i32 %97 to i64
  %99 = getelementptr inbounds %struct.ImageRef, ptr %96, i64 %98
  %100 = getelementptr inbounds %struct.ImageRef, ptr %99, i32 0, i32 2
  %101 = load i32, ptr %100, align 8
  store i32 %101, ptr %34, align 4
  %102 = load ptr, ptr %13, align 8
  %103 = load i32, ptr %23, align 4
  %104 = sext i32 %103 to i64
  %105 = getelementptr inbounds %struct.ImageRef, ptr %102, i64 %104
  %106 = getelementptr inbounds %struct.ImageRef, ptr %105, i32 0, i32 6
  %107 = load i32, ptr %106, align 8
  store i32 %107, ptr %35, align 4
  %108 = load ptr, ptr %13, align 8
  %109 = load i32, ptr %23, align 4
  %110 = sext i32 %109 to i64
  %111 = getelementptr inbounds %struct.ImageRef, ptr %108, i64 %110
  %112 = getelementptr inbounds %struct.ImageRef, ptr %111, i32 0, i32 7
  %113 = load i32, ptr %112, align 4
  store i32 %113, ptr %36, align 4
  %114 = load ptr, ptr %13, align 8
  %115 = load i32, ptr %23, align 4
  %116 = sext i32 %115 to i64
  %117 = getelementptr inbounds %struct.ImageRef, ptr %114, i64 %116
  %118 = getelementptr inbounds %struct.ImageRef, ptr %117, i32 0, i32 4
  %119 = load i32, ptr %118, align 8
  store i32 %119, ptr %37, align 4
  %120 = load ptr, ptr %13, align 8
  %121 = load i32, ptr %23, align 4
  %122 = sext i32 %121 to i64
  %123 = getelementptr inbounds %struct.ImageRef, ptr %120, i64 %122
  %124 = getelementptr inbounds %struct.ImageRef, ptr %123, i32 0, i32 5
  %125 = load i32, ptr %124, align 4
  store i32 %125, ptr %38, align 4
  %126 = load i32, ptr %35, align 4
  %127 = load i32, ptr %37, align 4
  %128 = add nsw i32 %126, %127
  store i32 %128, ptr %39, align 4
  %129 = load i32, ptr %36, align 4
  %130 = load i32, ptr %38, align 4
  %131 = add nsw i32 %129, %130
  store i32 %131, ptr %40, align 4
  %132 = load i32, ptr %35, align 4
  %133 = load i32, ptr %17, align 4
  %134 = icmp slt i32 %132, %133
  br i1 %134, label %135, label %144

135:                                              ; preds = %95
  %136 = load i32, ptr %17, align 4
  %137 = load i32, ptr %35, align 4
  %138 = sub nsw i32 %136, %137
  %139 = mul nsw i32 %138, 1
  %140 = load ptr, ptr %33, align 8
  %141 = sext i32 %139 to i64
  %142 = getelementptr inbounds i8, ptr %140, i64 %141
  store ptr %142, ptr %33, align 8
  %143 = load i32, ptr %17, align 4
  store i32 %143, ptr %35, align 4
  br label %144

144:                                              ; preds = %135, %95
  %145 = load i32, ptr %36, align 4
  %146 = load i32, ptr %18, align 4
  %147 = icmp slt i32 %145, %146
  br i1 %147, label %148, label %158

148:                                              ; preds = %144
  %149 = load i32, ptr %18, align 4
  %150 = load i32, ptr %36, align 4
  %151 = sub nsw i32 %149, %150
  %152 = load i32, ptr %34, align 4
  %153 = mul nsw i32 %151, %152
  %154 = load ptr, ptr %33, align 8
  %155 = sext i32 %153 to i64
  %156 = getelementptr inbounds i8, ptr %154, i64 %155
  store ptr %156, ptr %33, align 8
  %157 = load i32, ptr %18, align 4
  store i32 %157, ptr %36, align 4
  br label %158

158:                                              ; preds = %148, %144
  %159 = load i32, ptr %39, align 4
  %160 = load i32, ptr %19, align 4
  %161 = icmp sgt i32 %159, %160
  br i1 %161, label %162, label %164

162:                                              ; preds = %158
  %163 = load i32, ptr %19, align 4
  store i32 %163, ptr %39, align 4
  br label %164

164:                                              ; preds = %162, %158
  %165 = load i32, ptr %40, align 4
  %166 = load i32, ptr %20, align 4
  %167 = icmp sgt i32 %165, %166
  br i1 %167, label %168, label %170

168:                                              ; preds = %164
  %169 = load i32, ptr %20, align 4
  store i32 %169, ptr %40, align 4
  br label %170

170:                                              ; preds = %168, %164
  %171 = load i32, ptr %39, align 4
  %172 = load i32, ptr %35, align 4
  %173 = icmp sle i32 %171, %172
  br i1 %173, label %178, label %174

174:                                              ; preds = %170
  %175 = load i32, ptr %40, align 4
  %176 = load i32, ptr %36, align 4
  %177 = icmp sle i32 %175, %176
  br i1 %177, label %178, label %179

178:                                              ; preds = %174, %170
  br label %289

179:                                              ; preds = %174
  %180 = load i32, ptr %39, align 4
  %181 = load i32, ptr %35, align 4
  %182 = sub nsw i32 %180, %181
  store i32 %182, ptr %37, align 4
  %183 = load i32, ptr %40, align 4
  %184 = load i32, ptr %36, align 4
  %185 = sub nsw i32 %183, %184
  store i32 %185, ptr %38, align 4
  %186 = load ptr, ptr %12, align 8
  %187 = getelementptr inbounds %struct.SurfaceDataRasInfo, ptr %186, i32 0, i32 1
  %188 = load ptr, ptr %187, align 8
  %189 = ptrtoint ptr %188 to i64
  %190 = load i32, ptr %36, align 4
  %191 = sext i32 %190 to i64
  %192 = load i32, ptr %24, align 4
  %193 = sext i32 %192 to i64
  %194 = mul nsw i64 %191, %193
  %195 = load i32, ptr %35, align 4
  %196 = sext i32 %195 to i64
  %197 = mul nsw i64 %196, 2
  %198 = add nsw i64 %194, %197
  %199 = add nsw i64 %189, %198
  %200 = inttoptr i64 %199 to ptr
  store ptr %200, ptr %25, align 8
  br label %201

201:                                              ; preds = %284, %179
  store i32 0, ptr %41, align 4
  br label %202

202:                                              ; preds = %268, %201
  br label %203

203:                                              ; preds = %202
  %204 = load ptr, ptr %33, align 8
  %205 = load i32, ptr %41, align 4
  %206 = sext i32 %205 to i64
  %207 = getelementptr inbounds i8, ptr %204, i64 %206
  %208 = load i8, ptr %207, align 1
  %209 = zext i8 %208 to i32
  store i32 %209, ptr %43, align 4
  %210 = load i32, ptr %43, align 4
  %211 = icmp ne i32 %210, 0
  br i1 %211, label %212, label %266

212:                                              ; preds = %203
  %213 = load i32, ptr %43, align 4
  %214 = icmp slt i32 %213, 255
  br i1 %214, label %215, label %258

215:                                              ; preds = %212
  %216 = load i32, ptr %43, align 4
  %217 = sub nsw i32 255, %216
  store i32 %217, ptr %44, align 4
  %218 = load ptr, ptr %28, align 8
  %219 = load ptr, ptr %25, align 8
  %220 = load i32, ptr %41, align 4
  %221 = sext i32 %220 to i64
  %222 = getelementptr inbounds i16, ptr %219, i64 %221
  %223 = load i16, ptr %222, align 2
  %224 = zext i16 %223 to i32
  %225 = and i32 %224, 4095
  %226 = sext i32 %225 to i64
  %227 = getelementptr inbounds i32, ptr %218, i64 %226
  %228 = load i32, ptr %227, align 4
  %229 = trunc i32 %228 to i8
  %230 = zext i8 %229 to i32
  store i32 %230, ptr %42, align 4
  %231 = load i32, ptr %44, align 4
  %232 = sext i32 %231 to i64
  %233 = getelementptr inbounds [256 x [256 x i8]], ptr @mul8table, i64 0, i64 %232
  %234 = load i32, ptr %42, align 4
  %235 = sext i32 %234 to i64
  %236 = getelementptr inbounds [256 x i8], ptr %233, i64 0, i64 %235
  %237 = load i8, ptr %236, align 1
  %238 = zext i8 %237 to i32
  %239 = load i32, ptr %43, align 4
  %240 = sext i32 %239 to i64
  %241 = getelementptr inbounds [256 x [256 x i8]], ptr @mul8table, i64 0, i64 %240
  %242 = load i32, ptr %27, align 4
  %243 = sext i32 %242 to i64
  %244 = getelementptr inbounds [256 x i8], ptr %241, i64 0, i64 %243
  %245 = load i8, ptr %244, align 1
  %246 = zext i8 %245 to i32
  %247 = add nsw i32 %238, %246
  store i32 %247, ptr %42, align 4
  %248 = load ptr, ptr %29, align 8
  %249 = load i32, ptr %42, align 4
  %250 = sext i32 %249 to i64
  %251 = getelementptr inbounds i32, ptr %248, i64 %250
  %252 = load i32, ptr %251, align 4
  %253 = trunc i32 %252 to i16
  %254 = load ptr, ptr %25, align 8
  %255 = load i32, ptr %41, align 4
  %256 = sext i32 %255 to i64
  %257 = getelementptr inbounds i16, ptr %254, i64 %256
  store i16 %253, ptr %257, align 2
  br label %265

258:                                              ; preds = %212
  %259 = load i32, ptr %15, align 4
  %260 = trunc i32 %259 to i16
  %261 = load ptr, ptr %25, align 8
  %262 = load i32, ptr %41, align 4
  %263 = sext i32 %262 to i64
  %264 = getelementptr inbounds i16, ptr %261, i64 %263
  store i16 %260, ptr %264, align 2
  br label %265

265:                                              ; preds = %258, %215
  br label %266

266:                                              ; preds = %265, %203
  br label %267

267:                                              ; preds = %266
  br label %268

268:                                              ; preds = %267
  %269 = load i32, ptr %41, align 4
  %270 = add nsw i32 %269, 1
  store i32 %270, ptr %41, align 4
  %271 = load i32, ptr %37, align 4
  %272 = icmp slt i32 %270, %271
  br i1 %272, label %202, label %273, !llvm.loop !72

273:                                              ; preds = %268
  %274 = load ptr, ptr %25, align 8
  %275 = ptrtoint ptr %274 to i64
  %276 = load i32, ptr %24, align 4
  %277 = sext i32 %276 to i64
  %278 = add nsw i64 %275, %277
  %279 = inttoptr i64 %278 to ptr
  store ptr %279, ptr %25, align 8
  %280 = load i32, ptr %34, align 4
  %281 = load ptr, ptr %33, align 8
  %282 = sext i32 %280 to i64
  %283 = getelementptr inbounds i8, ptr %281, i64 %282
  store ptr %283, ptr %33, align 8
  br label %284

284:                                              ; preds = %273
  %285 = load i32, ptr %38, align 4
  %286 = add nsw i32 %285, -1
  store i32 %286, ptr %38, align 4
  %287 = icmp sgt i32 %286, 0
  br i1 %287, label %201, label %288, !llvm.loop !73

288:                                              ; preds = %284
  br label %289

289:                                              ; preds = %288, %178, %94
  %290 = load i32, ptr %23, align 4
  %291 = add nsw i32 %290, 1
  store i32 %291, ptr %23, align 4
  br label %81, !llvm.loop !74

292:                                              ; preds = %81
  ret void
}