; Function Attrs: nofree norecurse nosync nounwind memory(readwrite, inaccessiblemem: none) uwtable
define hidden void @Index12GrayDrawGlyphListAA(ptr nocapture noundef readonly %0, ptr nocapture noundef readonly %1, i32 noundef %2, i32 noundef %3, i32 noundef %4, i32 noundef %5, i32 noundef %6, i32 noundef %7, i32 noundef %8, ptr nocapture readnone %9, ptr nocapture readnone %10) #0 {
  %12 = getelementptr inbounds i8, ptr %0, i64 40
  %13 = load ptr, ptr %12, align 8
  %14 = getelementptr inbounds i8, ptr %0, i64 80
  %15 = load ptr, ptr %14, align 8
  %16 = icmp sgt i32 %2, 0
  br i1 %16, label %.lr.ph, label %._crit_edge

.lr.ph:                                           ; preds = %11
  %17 = and i32 %4, 255
  %18 = mul nuw nsw i32 %17, 29
  %19 = add nuw nsw i32 %18, 128
  %20 = lshr i32 %4, 8
  %21 = and i32 %20, 255
  %22 = mul nuw nsw i32 %21, 150
  %23 = add nuw nsw i32 %19, %22
  %24 = lshr i32 %4, 16
  %25 = and i32 %24, 255
  %26 = mul nuw nsw i32 %25, 77
  %27 = add nuw nsw i32 %23, %26
  %28 = lshr i32 %27, 8
  %29 = getelementptr inbounds i8, ptr %0, i64 32
  %30 = load i32, ptr %29, align 8
  %31 = getelementptr inbounds i8, ptr %0, i64 16
  %32 = sext i32 %30 to i64
  %33 = trunc i32 %3 to i16
  %34 = zext nneg i32 %28 to i64
  %wide.trip.count118 = zext nneg i32 %2 to i64
  br label %35

35:                                               ; preds = %.lr.ph, %.loopexit
  %indvars.iv115 = phi i64 [ 0, %.lr.ph ], [ %indvars.iv.next116, %.loopexit ]
  %36 = getelementptr inbounds %struct.ImageRef, ptr %1, i64 %indvars.iv115
  %37 = getelementptr inbounds i8, ptr %36, i64 8
  %38 = load ptr, ptr %37, align 8
  %.not = icmp eq ptr %38, null
  br i1 %.not, label %.loopexit, label %39

39:                                               ; preds = %35
  %40 = getelementptr inbounds i8, ptr %36, i64 32
  %41 = load i32, ptr %40, align 8
  %42 = getelementptr inbounds i8, ptr %36, i64 36
  %43 = load i32, ptr %42, align 4
  %44 = getelementptr inbounds i8, ptr %36, i64 24
  %45 = load i32, ptr %44, align 8
  %46 = getelementptr inbounds i8, ptr %36, i64 28
  %47 = load i32, ptr %46, align 4
  %48 = add nsw i32 %45, %41
  %49 = add nsw i32 %47, %43
  %.093 = tail call i32 @llvm.smax.i32(i32 %41, i32 %5)
  %.092 = tail call i32 @llvm.smax.i32(i32 %43, i32 %6)
  %.090 = tail call i32 @llvm.smin.i32(i32 %48, i32 %7)
  %.089 = tail call i32 @llvm.smin.i32(i32 %49, i32 %8)
  %.not108 = icmp sgt i32 %.090, %.093
  %.not109 = icmp sgt i32 %.089, %.092
  %or.cond = select i1 %.not108, i1 %.not109, i1 false
  br i1 %or.cond, label %50, label %.loopexit

50:                                               ; preds = %39
  %51 = getelementptr inbounds i8, ptr %36, i64 16
  %52 = load i32, ptr %51, align 8
  %53 = icmp slt i32 %43, %6
  %54 = icmp slt i32 %41, %5
  %55 = sub nsw i32 %5, %41
  %narrow = select i1 %54, i32 %55, i32 0
  %.087.idx = sext i32 %narrow to i64
  %.087 = getelementptr inbounds i8, ptr %38, i64 %.087.idx
  %56 = sub nsw i32 %6, %43
  %57 = mul nsw i32 %56, %52
  %narrow112 = select i1 %53, i32 %57, i32 0
  %.1.idx = sext i32 %narrow112 to i64
  %.1 = getelementptr inbounds i8, ptr %.087, i64 %.1.idx
  %58 = sub i32 %.090, %.093
  %59 = sub nsw i32 %.089, %.092
  %60 = load ptr, ptr %31, align 8
  %61 = ptrtoint ptr %60 to i64
  %62 = sext i32 %.092 to i64
  %63 = mul nsw i64 %62, %32
  %64 = sext i32 %.093 to i64
  %65 = shl nsw i64 %64, 1
  %66 = add nsw i64 %63, %65
  %67 = add nsw i64 %66, %61
  %68 = sext i32 %52 to i64
  %smax = tail call i32 @llvm.smax.i32(i32 %58, i32 1)
  %wide.trip.count = zext nneg i32 %smax to i64
  br label %69

69:                                               ; preds = %98, %50
  %.091 = phi i32 [ %59, %50 ], [ %101, %98 ]
  %.2 = phi ptr [ %.1, %50 ], [ %100, %98 ]
  %.086.in = phi i64 [ %67, %50 ], [ %99, %98 ]
  %.086 = inttoptr i64 %.086.in to ptr
  br label %70

70:                                               ; preds = %97, %69
  %indvars.iv = phi i64 [ %indvars.iv.next, %97 ], [ 0, %69 ]
  %71 = getelementptr inbounds i8, ptr %.2, i64 %indvars.iv
  %72 = load i8, ptr %71, align 1
  switch i8 %72, label %73 [
    i8 0, label %97
    i8 -1, label %95
  ]

73:                                               ; preds = %70
  %74 = xor i8 %72, -1
  %75 = getelementptr inbounds i16, ptr %.086, i64 %indvars.iv
  %76 = load i16, ptr %75, align 2
  %77 = and i16 %76, 4095
  %78 = zext nneg i16 %77 to i64
  %79 = getelementptr inbounds i32, ptr %13, i64 %78
  %80 = load i32, ptr %79, align 4
  %81 = and i32 %80, 255
  %82 = zext i8 %74 to i64
  %83 = zext nneg i32 %81 to i64
  %84 = getelementptr inbounds [256 x [256 x i8]], ptr @mul8table, i64 0, i64 %82, i64 %83
  %85 = load i8, ptr %84, align 1
  %86 = zext i8 %85 to i64
  %87 = zext i8 %72 to i64
  %88 = getelementptr inbounds [256 x [256 x i8]], ptr @mul8table, i64 0, i64 %87, i64 %34
  %89 = load i8, ptr %88, align 1
  %90 = zext i8 %89 to i64
  %91 = getelementptr inbounds i32, ptr %15, i64 %86
  %92 = getelementptr inbounds i32, ptr %91, i64 %90
  %93 = load i32, ptr %92, align 4
  %94 = trunc i32 %93 to i16
  store i16 %94, ptr %75, align 2
  br label %97

95:                                               ; preds = %70
  %96 = getelementptr inbounds i16, ptr %.086, i64 %indvars.iv
  store i16 %33, ptr %96, align 2
  br label %97

97:                                               ; preds = %70, %73, %95
  %indvars.iv.next = add nuw nsw i64 %indvars.iv, 1
  %exitcond.not = icmp eq i64 %indvars.iv.next, %wide.trip.count
  br i1 %exitcond.not, label %98, label %70, !llvm.loop !71

98:                                               ; preds = %97
  %99 = add nsw i64 %.086.in, %32
  %100 = getelementptr inbounds i8, ptr %.2, i64 %68
  %101 = add nsw i32 %.091, -1
  %102 = icmp sgt i32 %.091, 1
  br i1 %102, label %69, label %.loopexit, !llvm.loop !72

.loopexit:                                        ; preds = %98, %39, %35
  %indvars.iv.next116 = add nuw nsw i64 %indvars.iv115, 1
  %exitcond119.not = icmp eq i64 %indvars.iv.next116, %wide.trip.count118
  br i1 %exitcond119.not, label %._crit_edge, label %35, !llvm.loop !73

._crit_edge:                                      ; preds = %.loopexit, %11
  ret void
}